target datalayout = "e-m:e-p270:32:32-p271:32:32-p272:64:64-i64:64-i128:128-f80:128-n8:16:32:64-S128"
target triple = "x86_64-pc-linux-gnu"

%struct.nstime_t = type { i64, i32 }
%struct._capture_info = type { ptr, i16, i32, i32, i32, ptr, i64, i64, i8, %struct.nstime_t, i32, %struct.nstime_t, i32, i32, i8, i32, i32, i32, i8, i32, %struct.nstime_t, i32, double, double, double, i8, i32, ptr, ptr, i32, ptr, i32, ptr }

@.str.3 = private unnamed_addr constant [1 x i8] zeroinitializer, align 1
@decimal_point = internal global ptr null, align 8
@.str.137 = private unnamed_addr constant [8 x i8] c" second\00", align 1
@.str.138 = private unnamed_addr constant [2 x i8] c"s\00", align 1
@relative_time_string.time_string_buf = internal global [39 x i8] zeroinitializer, align 16
@.str.139 = private unnamed_addr constant [4 x i8] c"%ld\00", align 1
@.str.140 = private unnamed_addr constant [18 x i8] c"snprintf() failed\00", align 1
@.str.141 = private unnamed_addr constant [5 x i8] c"%s%s\00", align 1
@.str.142 = private unnamed_addr constant [4 x i8] c"n/a\00", align 1

; Function Attrs: null_pointer_is_valid sspstrong uwtable
define internal ptr @relative_time_string(ptr noundef %0, i32 noundef %1, ptr noundef %2, i1 noundef zeroext %3) #0 {
  %5 = alloca ptr, align 8
  %6 = alloca ptr, align 8
  %7 = alloca i32, align 4
  %8 = alloca ptr, align 8
  %9 = alloca i8, align 1
  %10 = alloca ptr, align 8
  %11 = alloca ptr, align 8
  %12 = alloca ptr, align 8
  %13 = alloca i64, align 8
  %14 = alloca i32, align 4
  %15 = alloca i32, align 4
  store ptr %0, ptr %6, align 8
  store i32 %1, ptr %7, align 4
  store ptr %2, ptr %8, align 8
  %16 = zext i1 %3 to i8
  store i8 %16, ptr %9, align 1
  call void @llvm.lifetime.start.p0(i64 8, ptr %10) #14
  %17 = load i8, ptr %9, align 1, !range !7, !noundef !8
  %18 = trunc i8 %17 to i1
  %19 = select i1 %18, ptr @.str.137, ptr @.str.3
  store ptr %19, ptr %10, align 8
  call void @llvm.lifetime.start.p0(i64 8, ptr %11) #14
  %20 = load i8, ptr %9, align 1, !range !7, !noundef !8
  %21 = trunc i8 %20 to i1
  %22 = select i1 %21, ptr @.str.138, ptr @.str.3
  store ptr %22, ptr %11, align 8
  %23 = load ptr, ptr %8, align 8
  %24 = getelementptr inbounds nuw %struct._capture_info, ptr %23, i32 0, i32 8
  %25 = load i8, ptr %24, align 8, !range !7, !noundef !8
  %26 = trunc i8 %25 to i1
  br i1 %26, label %27, label %106

27:                                               ; preds = %4
  %28 = load ptr, ptr %8, align 8
  %29 = getelementptr inbounds nuw %struct._capture_info, ptr %28, i32 0, i32 13
  %30 = load i32, ptr %29, align 4
  %31 = icmp ugt i32 %30, 0
  br i1 %31, label %32, label %106

32:                                               ; preds = %27
  call void @llvm.lifetime.start.p0(i64 8, ptr %12) #14
  call void @llvm.lifetime.start.p0(i64 8, ptr %13) #14
  call void @llvm.lifetime.start.p0(i64 4, ptr %14) #14
  store ptr @relative_time_string.time_string_buf, ptr %12, align 8
  store i64 39, ptr %13, align 8
  %33 = load ptr, ptr %12, align 8
  %34 = load i64, ptr %13, align 8
  %35 = load ptr, ptr %12, align 8
  %36 = call i64 @llvm.objectsize.i64.p0(ptr %35, i1 false, i1 true, i1 true)
  %37 = load ptr, ptr %6, align 8
  %38 = getelementptr inbounds nuw %struct.nstime_t, ptr %37, i32 0, i32 0
  %39 = load i64, ptr %38, align 8
  %40 = call i32 (ptr, i64, i32, i64, ptr, ...) @__snprintf_chk(ptr noundef %33, i64 noundef %34, i32 noundef 2, i64 noundef %36, ptr noundef @.str.139, i64 noundef %39)
  store i32 %40, ptr %14, align 4
  %41 = load i32, ptr %14, align 4
  %42 = icmp slt i32 %41, 0
  br i1 %42, label %43, label %49

43:                                               ; preds = %32
  %44 = load ptr, ptr %12, align 8
  %45 = load i64, ptr %13, align 8
  %46 = load ptr, ptr %12, align 8
  %47 = call i64 @llvm.objectsize.i64.p0(ptr %46, i1 false, i1 true, i1 true)
  %48 = call i32 (ptr, i64, i32, i64, ptr, ...) @__snprintf_chk(ptr noundef %44, i64 noundef %45, i32 noundef 2, i64 noundef %47, ptr noundef @.str.140)
  store ptr @relative_time_string.time_string_buf, ptr %5, align 8
  store i32 1, ptr %15, align 4
  br label %105

49:                                               ; preds = %32
  %50 = load i32, ptr %14, align 4
  %51 = zext i32 %50 to i64
  %52 = load i64, ptr %13, align 8
  %53 = icmp uge i64 %51, %52
  br i1 %53, label %54, label %55

54:                                               ; preds = %49
  store ptr @relative_time_string.time_string_buf, ptr %5, align 8
  store i32 1, ptr %15, align 4
  br label %105

55:                                               ; preds = %49
  %56 = load i32, ptr %14, align 4
  %57 = load ptr, ptr %12, align 8
  %58 = sext i32 %56 to i64
  %59 = getelementptr i8, ptr %57, i64 %58
  store ptr %59, ptr %12, align 8
  %60 = load i32, ptr %14, align 4
  %61 = sext i32 %60 to i64
  %62 = load i64, ptr %13, align 8
  %63 = sub i64 %62, %61
  store i64 %63, ptr %13, align 8
  %64 = load i32, ptr %7, align 4
  %65 = icmp ne i32 %64, 0
  br i1 %65, label %66, label %89

66:                                               ; preds = %55
  %67 = load ptr, ptr %12, align 8
  %68 = load i64, ptr %13, align 8
  %69 = load ptr, ptr %6, align 8
  %70 = getelementptr inbounds nuw %struct.nstime_t, ptr %69, i32 0, i32 1
  %71 = load i32, ptr %70, align 8
  %72 = load ptr, ptr @decimal_point, align 8
  %73 = load i32, ptr %7, align 4
  %74 = call i32 @format_fractional_part_nsecs(ptr noundef %67, i64 noundef %68, i32 noundef %71, ptr noundef %72, i32 noundef %73)
  store i32 %74, ptr %14, align 4
  %75 = load i32, ptr %14, align 4
  %76 = zext i32 %75 to i64
  %77 = load i64, ptr %13, align 8
  %78 = icmp uge i64 %76, %77
  br i1 %78, label %79, label %80

79:                                               ; preds = %66
  store ptr @relative_time_string.time_string_buf, ptr %5, align 8
  store i32 1, ptr %15, align 4
  br label %105

80:                                               ; preds = %66
  %81 = load i32, ptr %14, align 4
  %82 = load ptr, ptr %12, align 8
  %83 = sext i32 %81 to i64
  %84 = getelementptr i8, ptr %82, i64 %83
  store ptr %84, ptr %12, align 8
  %85 = load i32, ptr %14, align 4
  %86 = sext i32 %85 to i64
  %87 = load i64, ptr %13, align 8
  %88 = sub i64 %87, %86
  store i64 %88, ptr %13, align 8
  br label %89

89:                                               ; preds = %80, %55
  %90 = load ptr, ptr %12, align 8
  %91 = load i64, ptr %13, align 8
  %92 = load ptr, ptr %12, align 8
  %93 = call i64 @llvm.objectsize.i64.p0(ptr %92, i1 false, i1 true, i1 true)
  %94 = load ptr, ptr %10, align 8
  %95 = load ptr, ptr %6, align 8
  %96 = getelementptr inbounds nuw %struct.nstime_t, ptr %95, i32 0, i32 0
  %97 = load i64, ptr %96, align 8
  %98 = icmp eq i64 %97, 1
  br i1 %98, label %99, label %100

99:                                               ; preds = %89
  br label %102

100:                                              ; preds = %89
  %101 = load ptr, ptr %11, align 8
  br label %102

102:                                              ; preds = %100, %99
  %103 = phi ptr [ @.str.3, %99 ], [ %101, %100 ]
  %104 = call i32 (ptr, i64, i32, i64, ptr, ...) @__snprintf_chk(ptr noundef %90, i64 noundef %91, i32 noundef 2, i64 noundef %93, ptr noundef @.str.141, ptr noundef %94, ptr noundef %103)
  store ptr @relative_time_string.time_string_buf, ptr %5, align 8
  store i32 1, ptr %15, align 4
  br label %105

105:                                              ; preds = %102, %79, %54, %43
  call void @llvm.lifetime.end.p0(i64 4, ptr %14) #14
  call void @llvm.lifetime.end.p0(i64 8, ptr %13) #14
  call void @llvm.lifetime.end.p0(i64 8, ptr %12) #14
  br label %108

106:                                              ; preds = %27, %4
  %107 = call i32 (ptr, i64, i32, i64, ptr, ...) @__snprintf_chk(ptr noundef @relative_time_string.time_string_buf, i64 noundef 39, i32 noundef 2, i64 noundef 39, ptr noundef @.str.142)
  store ptr @relative_time_string.time_string_buf, ptr %5, align 8
  store i32 1, ptr %15, align 4
  br label %108

108:                                              ; preds = %106, %105
  call void @llvm.lifetime.end.p0(i64 8, ptr %11) #14
  call void @llvm.lifetime.end.p0(i64 8, ptr %10) #14
  %109 = load ptr, ptr %5, align 8
  ret ptr %109
}