; Function Attrs: null_pointer_is_valid sspstrong uwtable
define internal fastcc void @relative_time_string(ptr noundef readonly captures(none) %0, i32 noundef %1, ptr noundef readonly captures(none) %2, i1 noundef zeroext %3) unnamed_addr #0 {
  %5 = select i1 %3, ptr @.str.137, ptr @.str.3
  %6 = select i1 %3, ptr @.str.138, ptr @.str.3
  %7 = getelementptr inbounds nuw i8, ptr %2, i64 48
  %8 = load i8, ptr %7, align 8, !range !18, !noundef !19
  %9 = trunc nuw i8 %8 to i1
  br i1 %9, label %10, label %43

10:                                               ; preds = %4
  %11 = getelementptr inbounds nuw i8, ptr %2, i64 100
  %12 = load i32, ptr %11, align 4
  %.not = icmp eq i32 %12, 0
  br i1 %.not, label %43, label %13

13:                                               ; preds = %10
  %14 = load i64, ptr %0, align 8
  %15 = tail call i32 (ptr, i64, i32, i64, ptr, ...) @__snprintf_chk(ptr noundef nonnull @relative_time_string.time_string_buf, i64 noundef 39, i32 noundef 2, i64 noundef 39, ptr noundef nonnull @.str.139, i64 noundef %14)
  %16 = icmp slt i32 %15, 0
  br i1 %16, label %17, label %19

17:                                               ; preds = %13
  %18 = tail call i32 (ptr, i64, i32, i64, ptr, ...) @__snprintf_chk(ptr noundef nonnull @relative_time_string.time_string_buf, i64 noundef 39, i32 noundef 2, i64 noundef 39, ptr noundef nonnull @.str.140)
  br label %45

19:                                               ; preds = %13
  %20 = icmp samesign ugt i32 %15, 38
  br i1 %20, label %45, label %21

21:                                               ; preds = %19
  %22 = zext nneg i32 %15 to i64
  %23 = getelementptr i8, ptr @relative_time_string.time_string_buf, i64 %22
  %24 = sub nuw nsw i64 39, %22
  %.not40 = icmp eq i32 %1, 0
  br i1 %.not40, label %36, label %25

25:                                               ; preds = %21
  %26 = getelementptr inbounds nuw i8, ptr %0, i64 8
  %27 = load i32, ptr %26, align 8
  %28 = load ptr, ptr @decimal_point, align 8
  %29 = tail call i32 @format_fractional_part_nsecs(ptr noundef %23, i64 noundef %24, i32 noundef %27, ptr noundef %28, i32 noundef %1)
  %30 = zext i32 %29 to i64
  %.not41 = icmp samesign ugt i64 %24, %30
  br i1 %.not41, label %31, label %45

31:                                               ; preds = %25
  %32 = sext i32 %29 to i64
  %33 = add nsw i64 %32, %22
  %34 = getelementptr i8, ptr %23, i64 %32
  %35 = sub nsw i64 %24, %32
  br label %36

36:                                               ; preds = %31, %21
  %37 = phi i64 [ %33, %31 ], [ %22, %21 ]
  %.035 = phi ptr [ %34, %31 ], [ %23, %21 ]
  %.0 = phi i64 [ %35, %31 ], [ %24, %21 ]
  %38 = tail call i64 @llvm.usub.sat.i64(i64 39, i64 %37)
  %39 = load i64, ptr %0, align 8
  %40 = icmp eq i64 %39, 1
  %41 = select i1 %40, ptr @.str.3, ptr %6
  %42 = tail call i32 (ptr, i64, i32, i64, ptr, ...) @__snprintf_chk(ptr noundef %.035, i64 noundef %.0, i32 noundef 2, i64 noundef %38, ptr noundef nonnull @.str.141, ptr noundef nonnull %5, ptr noundef nonnull %41)
  br label %45

43:                                               ; preds = %10, %4
  %44 = tail call i32 (ptr, i64, i32, i64, ptr, ...) @__snprintf_chk(ptr noundef nonnull @relative_time_string.time_string_buf, i64 noundef 39, i32 noundef 2, i64 noundef 39, ptr noundef nonnull @.str.142)
  br label %45

45:                                               ; preds = %17, %36, %19, %25, %43
  ret void
}